target datalayout = "e-m:e-p270:32:32-p271:32:32-p272:64:64-i64:64-i128:128-f80:128-n8:16:32:64-S128"
target triple = "x86_64-pc-linux-gnu"

%struct.code = type { i8, i8, i16 }
%struct.z_stream_s = type { ptr, i32, i64, ptr, i32, i64, ptr, ptr, ptr, ptr, ptr, i32, i64, i64, i32 }
%struct.inflate_state = type { i32, i32, i32, i32, i32, i32, i64, i64, ptr, i32, i32, i32, i32, ptr, i64, i32, i32, i32, i32, ptr, ptr, i32, i32, i32, i32, i32, i32, ptr, [320 x i16], [288 x i16], [1444 x %struct.code], i32, i32, i32 }
%struct.MOZ_Z_gz_header_s = type { i32, i64, i32, i32, ptr, i32, i32, ptr, i32, ptr, i32, i32, i32 }

; Function Attrs: nounwind uwtable
define i32 @MOZ_Z_inflateGetHeader(ptr noundef %0, ptr noundef %1) #0 {
  %3 = alloca i32, align 4
  %4 = alloca ptr, align 8
  %5 = alloca ptr, align 8
  %6 = alloca ptr, align 8
  %7 = alloca i32, align 4
  store ptr %0, ptr %4, align 8, !tbaa !3
  store ptr %1, ptr %5, align 8, !tbaa !114
  call void @llvm.lifetime.start.p0(i64 8, ptr %6) #4
  %8 = load ptr, ptr %4, align 8, !tbaa !3
  %9 = icmp eq ptr %8, null
  br i1 %9, label %15, label %10

10:                                               ; preds = %2
  %11 = load ptr, ptr %4, align 8, !tbaa !3
  %12 = getelementptr inbounds nuw %struct.z_stream_s, ptr %11, i32 0, i32 7
  %13 = load ptr, ptr %12, align 8, !tbaa !8
  %14 = icmp eq ptr %13, null
  br i1 %14, label %15, label %16

15:                                               ; preds = %10, %2
  store i32 -2, ptr %3, align 4
  store i32 1, ptr %7, align 4
  br label %32

16:                                               ; preds = %10
  %17 = load ptr, ptr %4, align 8, !tbaa !3
  %18 = getelementptr inbounds nuw %struct.z_stream_s, ptr %17, i32 0, i32 7
  %19 = load ptr, ptr %18, align 8, !tbaa !8
  store ptr %19, ptr %6, align 8, !tbaa !14
  %20 = load ptr, ptr %6, align 8, !tbaa !14
  %21 = getelementptr inbounds nuw %struct.inflate_state, ptr %20, i32 0, i32 2
  %22 = load i32, ptr %21, align 8, !tbaa !22
  %23 = and i32 %22, 2
  %24 = icmp eq i32 %23, 0
  br i1 %24, label %25, label %26

25:                                               ; preds = %16
  store i32 -2, ptr %3, align 4
  store i32 1, ptr %7, align 4
  br label %32

26:                                               ; preds = %16
  %27 = load ptr, ptr %5, align 8, !tbaa !114
  %28 = load ptr, ptr %6, align 8, !tbaa !14
  %29 = getelementptr inbounds nuw %struct.inflate_state, ptr %28, i32 0, i32 8
  store ptr %27, ptr %29, align 8, !tbaa !28
  %30 = load ptr, ptr %5, align 8, !tbaa !114
  %31 = getelementptr inbounds nuw %struct.MOZ_Z_gz_header_s, ptr %30, i32 0, i32 12
  store i32 0, ptr %31, align 8, !tbaa !56
  store i32 0, ptr %3, align 4
  store i32 1, ptr %7, align 4
  br label %32

32:                                               ; preds = %26, %25, %15
  call void @llvm.lifetime.end.p0(i64 8, ptr %6) #4
  %33 = load i32, ptr %3, align 4
  ret i32 %33
}